target datalayout = "e-m:e-p270:32:32-p271:32:32-p272:64:64-i64:64-i128:128-f80:128-n8:16:32:64-S128"
target triple = "x86_64-pc-linux-gnu"

%struct.lua_State = type { %struct.GCRef, i8, i8, i8, i8, %struct.MRef, %struct.GCRef, ptr, ptr, %struct.MRef, %struct.MRef, %struct.GCRef, %struct.GCRef, ptr, i32 }
%struct.MRef = type { i64 }
%struct.GCRef = type { i64 }
%union.TValue = type { i64 }
%struct.GG_State = type { %struct.lua_State, %struct.global_State, %struct.jit_State, [64 x i16], [243 x ptr], [57 x i32] }
%struct.global_State = type { ptr, ptr, %struct.GCState, %struct.GCstr, i8, i8, i8, i8, %struct.StrInternState, i32, %struct.GCRef, %struct.SBuf, %union.TValue, %union.TValue, %struct.Node, %union.TValue, %struct.GCupval, i32, i32, ptr, ptr, ptr, i32, i32, %struct.GCRef, %struct.MRef, %struct.MRef, %struct.PRNGState, [39 x %struct.GCRef] }
%struct.GCState = type { i64, i64, i8, i8, i8, i8, i32, %struct.GCRef, %struct.MRef, %struct.GCRef, %struct.GCRef, %struct.GCRef, %struct.GCRef, i64, i64, i32, i32, %struct.MRef }
%struct.GCstr = type { %struct.GCRef, i8, i8, i8, i8, i32, i32, i32 }
%struct.StrInternState = type { ptr, i32, i32, i32, i8, i8, i8, i8, i64 }
%struct.SBuf = type { ptr, ptr, ptr, %struct.MRef }
%struct.Node = type { %union.TValue, %union.TValue, %struct.MRef }
%struct.GCupval = type { %struct.GCRef, i8, i8, i8, i8, %union.anon, %struct.MRef, i32 }
%union.anon = type { %struct.anon.1 }
%struct.anon.1 = type { %struct.GCRef, %struct.GCRef }
%struct.PRNGState = type { [4 x i64] }
%struct.jit_State = type { %struct.GCtrace, ptr, ptr, ptr, ptr, ptr, ptr, i32, i32, i32, i8, i8, %struct.IRType1, i8, %struct.FoldState, ptr, i32, i32, i32, i32, i32, i32, i32, [1 x i32], [5 x %union.TValue], [3 x %union.TValue], ptr, i32, i32, i32, i32, ptr, ptr, i32, i32, i8, ptr, i32, i32, i16, [101 x i16], [258 x i32], [15 x i32], [16 x ptr], [64 x %struct.HotPenalty], i32, [16 x %struct.BPropEntry], i32, %struct.ScEvEntry, ptr, i32, i32, i32, ptr, i32, i32, ptr, ptr, ptr, i64, i64, %union.TValue, ptr, i32, i32 }
%struct.GCtrace = type { %struct.GCRef, i8, i8, i16, i32, i32, %struct.GCRef, ptr, i32, i32, ptr, ptr, %struct.GCRef, %struct.MRef, i32, i32, ptr, i32, i16, i16, i16, i16, i16, i16, i16, i8, i8, i8, i8 }
%struct.IRType1 = type { i8 }
%struct.FoldState = type { %union.IRIns, [2 x %union.IRIns], [2 x %union.IRIns] }
%union.IRIns = type { %struct.GCRef }
%struct.HotPenalty = type { %struct.MRef, i16, i16 }
%struct.BPropEntry = type { i16, i16, i32 }
%struct.ScEvEntry = type { %struct.MRef, i16, i16, i16, i16, %struct.IRType1, i8 }

@.str.9 = private unnamed_addr constant [24 x i8] c"store to dead GC object\00", align 1

; Function Attrs: alwaysinline nounwind uwtable
define internal void @checklivetv(ptr noundef %0, ptr noundef %1, ptr noundef %2) #5 {
  %4 = alloca ptr, align 8
  %5 = alloca ptr, align 8
  %6 = alloca ptr, align 8
  store ptr %0, ptr %4, align 8, !tbaa !4
  store ptr %1, ptr %5, align 8, !tbaa !56
  store ptr %2, ptr %6, align 8, !tbaa !41
  ret void
}

; Function Attrs: alwaysinline nounwind uwtable
define internal void @setgcVraw(ptr noundef %0, ptr noundef %1, i32 noundef %2) #5 {
  %4 = alloca ptr, align 8
  %5 = alloca ptr, align 8
  %6 = alloca i32, align 4
  store ptr %0, ptr %4, align 8, !tbaa !56
  store ptr %1, ptr %5, align 8, !tbaa !57
  store i32 %2, ptr %6, align 4, !tbaa !35
  %7 = load ptr, ptr %5, align 8, !tbaa !57
  %8 = ptrtoint ptr %7 to i64
  %9 = load i32, ptr %6, align 4, !tbaa !35
  %10 = zext i32 %9 to i64
  %11 = shl i64 %10, 47
  %12 = or i64 %8, %11
  %13 = load ptr, ptr %4, align 8, !tbaa !56
  %14 = getelementptr inbounds nuw %struct.GCRef, ptr %13, i32 0, i32 0
  store i64 %12, ptr %14, align 8, !tbaa !37
  ret void
}

; Function Attrs: alwaysinline nounwind uwtable
define internal void @setgcV(ptr noundef %0, ptr noundef %1, ptr noundef %2, i32 noundef %3) #5 {
  %5 = alloca ptr, align 8
  %6 = alloca ptr, align 8
  %7 = alloca ptr, align 8
  %8 = alloca i32, align 4
  store ptr %0, ptr %5, align 8, !tbaa !4
  store ptr %1, ptr %6, align 8, !tbaa !56
  store ptr %2, ptr %7, align 8, !tbaa !57
  store i32 %3, ptr %8, align 4, !tbaa !35
  %9 = load ptr, ptr %6, align 8, !tbaa !56
  %10 = load ptr, ptr %7, align 8, !tbaa !57
  %11 = load i32, ptr %8, align 4, !tbaa !35
  call void @setgcVraw(ptr noundef %9, ptr noundef %10, i32 noundef %11)
  %12 = load ptr, ptr %5, align 8, !tbaa !4
  %13 = load ptr, ptr %6, align 8, !tbaa !56
  call void @checklivetv(ptr noundef %12, ptr noundef %13, ptr noundef @.str.9)
  ret void
}

; Function Attrs: alwaysinline nounwind uwtable
define internal void @setintV(ptr noundef %0, i32 noundef %1) #5 {
  %3 = alloca ptr, align 8
  %4 = alloca i32, align 4
  store ptr %0, ptr %3, align 8, !tbaa !56
  store i32 %1, ptr %4, align 4, !tbaa !35
  %5 = load i32, ptr %4, align 4, !tbaa !35
  %6 = sitofp i32 %5 to double
  %7 = load ptr, ptr %3, align 8, !tbaa !56
  store double %6, ptr %7, align 8, !tbaa !37
  ret void
}

; Function Attrs: alwaysinline nounwind uwtable
define internal void @setint64V(ptr noundef %0, i64 noundef %1) #5 {
  %3 = alloca ptr, align 8
  %4 = alloca i64, align 8
  store ptr %0, ptr %3, align 8, !tbaa !56
  store i64 %1, ptr %4, align 8, !tbaa !61
  %5 = load i64, ptr %4, align 8, !tbaa !61
  %6 = sitofp i64 %5 to double
  %7 = load ptr, ptr %3, align 8, !tbaa !56
  store double %6, ptr %7, align 8, !tbaa !37
  ret void
}

; Function Attrs: alwaysinline nounwind uwtable
define internal void @setstrV(ptr noundef %0, ptr noundef %1, ptr noundef %2) #5 {
  %4 = alloca ptr, align 8
  %5 = alloca ptr, align 8
  %6 = alloca ptr, align 8
  store ptr %0, ptr %4, align 8, !tbaa !4
  store ptr %1, ptr %5, align 8, !tbaa !56
  store ptr %2, ptr %6, align 8, !tbaa !39
  %7 = load ptr, ptr %4, align 8, !tbaa !4
  %8 = load ptr, ptr %5, align 8, !tbaa !56
  %9 = load ptr, ptr %6, align 8, !tbaa !39
  call void @setgcV(ptr noundef %7, ptr noundef %8, ptr noundef %9, i32 noundef -5)
  ret void
}

; Function Attrs: nounwind uwtable
define internal ptr @jit_checktrace(ptr noundef %0) #0 {
  %2 = alloca ptr, align 8
  %3 = alloca ptr, align 8
  %4 = alloca i32, align 4
  %5 = alloca ptr, align 8
  %6 = alloca i32, align 4
  store ptr %0, ptr %3, align 8, !tbaa !4
  call void @llvm.lifetime.start.p0(i64 4, ptr %4) #9
  %7 = load ptr, ptr %3, align 8, !tbaa !4
  %8 = call i32 @lj_lib_checkint(ptr noundef %7, i32 noundef 1)
  store i32 %8, ptr %4, align 4, !tbaa !35
  call void @llvm.lifetime.start.p0(i64 8, ptr %5) #9
  %9 = load ptr, ptr %3, align 8, !tbaa !4
  %10 = getelementptr inbounds nuw %struct.lua_State, ptr %9, i32 0, i32 5
  %11 = getelementptr inbounds nuw %struct.MRef, ptr %10, i32 0, i32 0
  %12 = load i64, ptr %11, align 8, !tbaa !17
  %13 = inttoptr i64 %12 to ptr
  %14 = getelementptr inbounds i8, ptr %13, i64 -96
  %15 = getelementptr inbounds nuw %struct.GG_State, ptr %14, i32 0, i32 2
  store ptr %15, ptr %5, align 8, !tbaa !18
  %16 = load i32, ptr %4, align 4, !tbaa !35
  %17 = icmp ugt i32 %16, 0
  br i1 %17, label %18, label %34

18:                                               ; preds = %1
  %19 = load i32, ptr %4, align 4, !tbaa !35
  %20 = load ptr, ptr %5, align 8, !tbaa !18
  %21 = getelementptr inbounds nuw %struct.jit_State, ptr %20, i32 0, i32 38
  %22 = load i32, ptr %21, align 4, !tbaa !114
  %23 = icmp ult i32 %19, %22
  br i1 %23, label %24, label %34

24:                                               ; preds = %18
  %25 = load ptr, ptr %5, align 8, !tbaa !18
  %26 = getelementptr inbounds nuw %struct.jit_State, ptr %25, i32 0, i32 36
  %27 = load ptr, ptr %26, align 8, !tbaa !115
  %28 = load i32, ptr %4, align 4, !tbaa !35
  %29 = zext i32 %28 to i64
  %30 = getelementptr inbounds nuw %struct.GCRef, ptr %27, i64 %29
  %31 = getelementptr inbounds nuw %struct.GCRef, ptr %30, i32 0, i32 0
  %32 = load i64, ptr %31, align 8, !tbaa !84
  %33 = inttoptr i64 %32 to ptr
  store ptr %33, ptr %2, align 8
  store i32 1, ptr %6, align 4
  br label %35

34:                                               ; preds = %18, %1
  store ptr null, ptr %2, align 8
  store i32 1, ptr %6, align 4
  br label %35

35:                                               ; preds = %34, %24
  call void @llvm.lifetime.end.p0(i64 8, ptr %5) #9
  call void @llvm.lifetime.end.p0(i64 4, ptr %4) #9
  %36 = load ptr, ptr %2, align 8
  ret ptr %36
}

; Function Attrs: nounwind uwtable
define internal i32 @lj_cf_jit_util_tracemc(ptr noundef %0) #0 {
  %2 = alloca i32, align 4
  %3 = alloca ptr, align 8
  %4 = alloca ptr, align 8
  %5 = alloca i32, align 4
  store ptr %0, ptr %3, align 8, !tbaa !4
  call void @llvm.lifetime.start.p0(i64 8, ptr %4) #9
  %6 = load ptr, ptr %3, align 8, !tbaa !4
  %7 = call ptr @jit_checktrace(ptr noundef %6)
  store ptr %7, ptr %4, align 8, !tbaa !85
  %8 = load ptr, ptr %4, align 8, !tbaa !85
  %9 = icmp ne ptr %8, null
  br i1 %9, label %10, label %45

10:                                               ; preds = %1
  %11 = load ptr, ptr %4, align 8, !tbaa !85
  %12 = getelementptr inbounds nuw %struct.GCtrace, ptr %11, i32 0, i32 16
  %13 = load ptr, ptr %12, align 8, !tbaa !107
  %14 = icmp ne ptr %13, null
  br i1 %14, label %15, label %45

15:                                               ; preds = %10
  %16 = load ptr, ptr %3, align 8, !tbaa !4
  %17 = load ptr, ptr %3, align 8, !tbaa !4
  %18 = getelementptr inbounds nuw %struct.lua_State, ptr %17, i32 0, i32 8
  %19 = load ptr, ptr %18, align 8, !tbaa !16
  %20 = getelementptr inbounds %union.TValue, ptr %19, i64 -1
  %21 = load ptr, ptr %3, align 8, !tbaa !4
  %22 = load ptr, ptr %4, align 8, !tbaa !85
  %23 = getelementptr inbounds nuw %struct.GCtrace, ptr %22, i32 0, i32 16
  %24 = load ptr, ptr %23, align 8, !tbaa !107
  %25 = load ptr, ptr %4, align 8, !tbaa !85
  %26 = getelementptr inbounds nuw %struct.GCtrace, ptr %25, i32 0, i32 15
  %27 = load i32, ptr %26, align 4, !tbaa !108
  %28 = zext i32 %27 to i64
  %29 = call ptr @lj_str_new(ptr noundef %21, ptr noundef %24, i64 noundef %28)
  call void @setstrV(ptr noundef %16, ptr noundef %20, ptr noundef %29)
  %30 = load ptr, ptr %3, align 8, !tbaa !4
  %31 = getelementptr inbounds nuw %struct.lua_State, ptr %30, i32 0, i32 8
  %32 = load ptr, ptr %31, align 8, !tbaa !16
  %33 = getelementptr inbounds nuw %union.TValue, ptr %32, i32 1
  store ptr %33, ptr %31, align 8, !tbaa !16
  %34 = load ptr, ptr %4, align 8, !tbaa !85
  %35 = getelementptr inbounds nuw %struct.GCtrace, ptr %34, i32 0, i32 16
  %36 = load ptr, ptr %35, align 8, !tbaa !107
  %37 = ptrtoint ptr %36 to i64
  call void @setint64V(ptr noundef %32, i64 noundef %37)
  %38 = load ptr, ptr %3, align 8, !tbaa !4
  %39 = getelementptr inbounds nuw %struct.lua_State, ptr %38, i32 0, i32 8
  %40 = load ptr, ptr %39, align 8, !tbaa !16
  %41 = getelementptr inbounds nuw %union.TValue, ptr %40, i32 1
  store ptr %41, ptr %39, align 8, !tbaa !16
  %42 = load ptr, ptr %4, align 8, !tbaa !85
  %43 = getelementptr inbounds nuw %struct.GCtrace, ptr %42, i32 0, i32 17
  %44 = load i32, ptr %43, align 8, !tbaa !109
  call void @setintV(ptr noundef %40, i32 noundef %44)
  store i32 3, ptr %2, align 4
  store i32 1, ptr %5, align 4
  br label %46

45:                                               ; preds = %10, %1
  store i32 0, ptr %2, align 4
  store i32 1, ptr %5, align 4
  br label %46

46:                                               ; preds = %45, %15
  call void @llvm.lifetime.end.p0(i64 8, ptr %4) #9
  %47 = load i32, ptr %2, align 4
  ret i32 %47
}