; Function Attrs: nounwind uwtable
define internal range(i32 0, 4) i32 @lj_cf_jit_util_tracemc(ptr noundef %0) #0 {
  %2 = tail call i32 @lj_lib_checkint(ptr noundef %0, i32 noundef 1) #8
  %3 = getelementptr inbounds nuw i8, ptr %0, i64 16
  %4 = load i64, ptr %3, align 8, !tbaa !4
  %5 = inttoptr i64 %4 to ptr
  %.not.i = icmp eq i32 %2, 0
  br i1 %.not.i, label %jit_checktrace.exit.thread, label %6

6:                                                ; preds = %1
  %7 = getelementptr inbounds nuw i8, ptr %5, i64 1132
  %8 = load i32, ptr %7, align 4, !tbaa !71
  %9 = icmp ult i32 %2, %8
  br i1 %9, label %jit_checktrace.exit, label %jit_checktrace.exit.thread

jit_checktrace.exit:                              ; preds = %6
  %10 = getelementptr inbounds nuw i8, ptr %5, i64 1120
  %11 = load ptr, ptr %10, align 8, !tbaa !72
  %12 = zext i32 %2 to i64
  %13 = getelementptr inbounds nuw %struct.GCRef, ptr %11, i64 %12
  %14 = load i64, ptr %13, align 8, !tbaa !70
  %15 = inttoptr i64 %14 to ptr
  %.not = icmp eq i64 %14, 0
  br i1 %.not, label %jit_checktrace.exit.thread, label %16

16:                                               ; preds = %jit_checktrace.exit
  %17 = getelementptr inbounds nuw i8, ptr %15, i64 88
  %18 = load ptr, ptr %17, align 8, !tbaa !92
  %.not14 = icmp eq ptr %18, null
  br i1 %.not14, label %jit_checktrace.exit.thread, label %19

19:                                               ; preds = %16
  %20 = getelementptr inbounds nuw i8, ptr %0, i64 40
  %21 = load ptr, ptr %20, align 8, !tbaa !32
  %22 = getelementptr inbounds i8, ptr %21, i64 -8
  %23 = getelementptr inbounds nuw i8, ptr %15, i64 84
  %24 = load i32, ptr %23, align 4, !tbaa !93
  %25 = zext i32 %24 to i64
  %26 = tail call ptr @lj_str_new(ptr noundef nonnull %0, ptr noundef nonnull %18, i64 noundef %25) #8
  %27 = ptrtoint ptr %26 to i64
  %28 = or i64 %27, -703687441776640
  store i64 %28, ptr %22, align 8, !tbaa !34
  %29 = load ptr, ptr %20, align 8, !tbaa !32
  %30 = getelementptr inbounds nuw i8, ptr %29, i64 8
  store ptr %30, ptr %20, align 8, !tbaa !32
  %31 = load ptr, ptr %17, align 8, !tbaa !92
  %32 = ptrtoint ptr %31 to i64
  %33 = sitofp i64 %32 to double
  store double %33, ptr %29, align 8, !tbaa !34
  %34 = load ptr, ptr %20, align 8, !tbaa !32
  %35 = getelementptr inbounds nuw i8, ptr %34, i64 8
  store ptr %35, ptr %20, align 8, !tbaa !32
  %36 = getelementptr inbounds nuw i8, ptr %15, i64 96
  %37 = load i32, ptr %36, align 8, !tbaa !94
  %38 = sitofp i32 %37 to double
  store double %38, ptr %34, align 8, !tbaa !34
  br label %jit_checktrace.exit.thread

jit_checktrace.exit.thread:                       ; preds = %1, %6, %jit_checktrace.exit, %16, %19
  %.0 = phi i32 [ 3, %19 ], [ 0, %16 ], [ 0, %jit_checktrace.exit ], [ 0, %6 ], [ 0, %1 ]
  ret i32 %.0
}